target datalayout = "e-m:e-p270:32:32-p271:32:32-p272:64:64-i64:64-i128:128-f80:128-n8:16:32:64-S128"
target triple = "x86_64-pc-linux-gnu"

%"class.std::bitset" = type { %"struct.std::_Base_bitset" }
%"struct.std::_Base_bitset" = type { i64 }
%"class.pxrInternal_v0_24__pxrReserved__::SdfPath" = type { %"struct.pxrInternal_v0_24__pxrReserved__::Sdf_PathNodeHandleImpl", %"struct.pxrInternal_v0_24__pxrReserved__::Sdf_PathNodeHandleImpl.0" }
%"struct.pxrInternal_v0_24__pxrReserved__::Sdf_PathNodeHandleImpl" = type { %"struct.pxrInternal_v0_24__pxrReserved__::Sdf_Pool<pxrInternal_v0_24__pxrReserved__::Sdf_PathPrimTag, 24, 8>::Handle" }
%"struct.pxrInternal_v0_24__pxrReserved__::Sdf_Pool<pxrInternal_v0_24__pxrReserved__::Sdf_PathPrimTag, 24, 8>::Handle" = type { i32 }
%"struct.pxrInternal_v0_24__pxrReserved__::Sdf_PathNodeHandleImpl.0" = type { %"struct.pxrInternal_v0_24__pxrReserved__::Sdf_Pool<pxrInternal_v0_24__pxrReserved__::Sdf_PathPropTag, 24, 8>::Handle" }
%"struct.pxrInternal_v0_24__pxrReserved__::Sdf_Pool<pxrInternal_v0_24__pxrReserved__::Sdf_PathPropTag, 24, 8>::Handle" = type { i32 }
%"class.pxrInternal_v0_24__pxrReserved__::UsdObject" = type { i32, %"class.pxrInternal_v0_24__pxrReserved__::Usd_PrimDataHandle", %"class.pxrInternal_v0_24__pxrReserved__::SdfPath", %"class.pxrInternal_v0_24__pxrReserved__::TfToken" }
%"class.pxrInternal_v0_24__pxrReserved__::Usd_PrimDataHandle" = type { %"class.pxrInternal_v0_24__pxrReserved__::TfDelegatedCountPtr" }
%"class.pxrInternal_v0_24__pxrReserved__::TfDelegatedCountPtr" = type { ptr }
%"class.pxrInternal_v0_24__pxrReserved__::TfToken" = type { %"class.pxrInternal_v0_24__pxrReserved__::TfPointerAndBits" }
%"class.pxrInternal_v0_24__pxrReserved__::TfPointerAndBits" = type { ptr }
%"class.pxrInternal_v0_24__pxrReserved__::Usd_PrimData" = type { ptr, ptr, %"class.pxrInternal_v0_24__pxrReserved__::SdfPath", ptr, ptr, %"class.pxrInternal_v0_24__pxrReserved__::TfPointerAndBits.315", %"struct.std::atomic.52", %"class.std::bitset" }
%"class.pxrInternal_v0_24__pxrReserved__::TfPointerAndBits.315" = type { ptr }
%"struct.std::atomic.52" = type { %"struct.std::__atomic_base.53" }
%"struct.std::__atomic_base.53" = type { i64 }

; Function Attrs: mustprogress nounwind uwtable
define linkonce_odr noundef zeroext i1 @_ZNK32pxrInternal_v0_24__pxrReserved__8Sdf_PoolINS_15Sdf_PathPrimTagELj24ELj8ELj16384EE6HandlecvbEv(ptr noundef nonnull align 4 dereferenceable(4) %0) #1 comdat align 2 {
  %2 = alloca ptr, align 8
  store ptr %0, ptr %2, align 8
  %3 = load ptr, ptr %2, align 8
  %4 = getelementptr inbounds nuw %"struct.pxrInternal_v0_24__pxrReserved__::Sdf_Pool<pxrInternal_v0_24__pxrReserved__::Sdf_PathPrimTag, 24, 8>::Handle", ptr %3, i32 0, i32 0
  %5 = load i32, ptr %4, align 4
  %6 = icmp ne i32 %5, 0
  ret i1 %6
}

; Function Attrs: mustprogress nounwind uwtable
define linkonce_odr noundef ptr @_ZNK32pxrInternal_v0_24__pxrReserved__19TfDelegatedCountPtrIKNS_12Usd_PrimDataEE3getEv(ptr noundef nonnull align 8 dereferenceable(8) %0) #1 comdat align 2 {
  %2 = alloca ptr, align 8
  store ptr %0, ptr %2, align 8
  %3 = load ptr, ptr %2, align 8
  %4 = getelementptr inbounds nuw %"class.pxrInternal_v0_24__pxrReserved__::TfDelegatedCountPtr", ptr %3, i32 0, i32 0
  %5 = load ptr, ptr %4, align 8
  ret ptr %5
}

; Function Attrs: mustprogress nounwind uwtable
define linkonce_odr noundef zeroext i1 @_ZNK32pxrInternal_v0_24__pxrReserved__22Sdf_PathNodeHandleImplINS_8Sdf_PoolINS_15Sdf_PathPrimTagELj24ELj8ELj16384EE6HandleELb1EKNS_12Sdf_PathNodeEEcvbEv(ptr noundef nonnull align 4 dereferenceable(4) %0) #1 comdat align 2 {
  %2 = alloca ptr, align 8
  store ptr %0, ptr %2, align 8
  %3 = load ptr, ptr %2, align 8
  %4 = getelementptr inbounds nuw %"struct.pxrInternal_v0_24__pxrReserved__::Sdf_PathNodeHandleImpl", ptr %3, i32 0, i32 0
  %5 = call noundef zeroext i1 @_ZNK32pxrInternal_v0_24__pxrReserved__8Sdf_PoolINS_15Sdf_PathPrimTagELj24ELj8ELj16384EE6HandlecvbEv(ptr noundef nonnull align 4 dereferenceable(4) %4)
  ret i1 %5
}

; Function Attrs: mustprogress nounwind uwtable
define linkonce_odr noundef nonnull align 4 dereferenceable(8) ptr @_ZNK32pxrInternal_v0_24__pxrReserved__12Usd_PrimData7GetPathEv(ptr noundef nonnull align 8 dereferenceable(64) %0) #1 comdat align 2 {
  %2 = alloca ptr, align 8
  store ptr %0, ptr %2, align 8
  %3 = load ptr, ptr %2, align 8
  %4 = getelementptr inbounds nuw %"class.pxrInternal_v0_24__pxrReserved__::Usd_PrimData", ptr %3, i32 0, i32 2
  ret ptr %4
}

; Function Attrs: mustprogress nounwind uwtable
define linkonce_odr noundef ptr @_ZN32pxrInternal_v0_24__pxrReserved__11get_pointerERKNS_18Usd_PrimDataHandleE(ptr noundef nonnull align 8 dereferenceable(8) %0) #1 comdat {
  %2 = alloca ptr, align 8
  store ptr %0, ptr %2, align 8
  %3 = load ptr, ptr %2, align 8
  %4 = getelementptr inbounds nuw %"class.pxrInternal_v0_24__pxrReserved__::Usd_PrimDataHandle", ptr %3, i32 0, i32 0
  %5 = call noundef ptr @_ZNK32pxrInternal_v0_24__pxrReserved__19TfDelegatedCountPtrIKNS_12Usd_PrimDataEE3getEv(ptr noundef nonnull align 8 dereferenceable(8) %4) #11
  ret ptr %5
}

; Function Attrs: mustprogress nounwind uwtable
define linkonce_odr noundef zeroext i1 @_ZNK32pxrInternal_v0_24__pxrReserved__7SdfPath7IsEmptyEv(ptr noundef nonnull align 4 dereferenceable(8) %0) #1 comdat align 2 {
  %2 = alloca ptr, align 8
  store ptr %0, ptr %2, align 8
  %3 = load ptr, ptr %2, align 8
  %4 = getelementptr inbounds nuw %"class.pxrInternal_v0_24__pxrReserved__::SdfPath", ptr %3, i32 0, i32 0
  %5 = call noundef zeroext i1 @_ZNK32pxrInternal_v0_24__pxrReserved__22Sdf_PathNodeHandleImplINS_8Sdf_PoolINS_15Sdf_PathPrimTagELj24ELj8ELj16384EE6HandleELb1EKNS_12Sdf_PathNodeEEcvbEv(ptr noundef nonnull align 4 dereferenceable(4) %4) #11
  %6 = xor i1 %5, true
  ret i1 %6
}

; Function Attrs: mustprogress uwtable
define linkonce_odr noundef nonnull align 4 dereferenceable(8) ptr @_ZNK32pxrInternal_v0_24__pxrReserved__9UsdObject11GetPrimPathEv(ptr noundef nonnull align 8 dereferenceable(32) %0) #0 comdat align 2 {
  %2 = alloca ptr, align 8
  %3 = alloca ptr, align 8
  %4 = alloca ptr, align 8
  store ptr %0, ptr %3, align 8
  %5 = load ptr, ptr %3, align 8
  %6 = getelementptr inbounds nuw %"class.pxrInternal_v0_24__pxrReserved__::UsdObject", ptr %5, i32 0, i32 2
  %7 = call noundef zeroext i1 @_ZNK32pxrInternal_v0_24__pxrReserved__7SdfPath7IsEmptyEv(ptr noundef nonnull align 4 dereferenceable(8) %6) #11
  br i1 %7, label %10, label %8

8:                                                ; preds = %1
  %9 = getelementptr inbounds nuw %"class.pxrInternal_v0_24__pxrReserved__::UsdObject", ptr %5, i32 0, i32 2
  store ptr %9, ptr %2, align 8
  br label %21

10:                                               ; preds = %1
  %11 = getelementptr inbounds nuw %"class.pxrInternal_v0_24__pxrReserved__::UsdObject", ptr %5, i32 0, i32 1
  %12 = call noundef ptr @_ZN32pxrInternal_v0_24__pxrReserved__11get_pointerERKNS_18Usd_PrimDataHandleE(ptr noundef nonnull align 8 dereferenceable(8) %11)
  store ptr %12, ptr %4, align 8
  %13 = load ptr, ptr %4, align 8
  %14 = icmp ne ptr %13, null
  br i1 %14, label %15, label %18

15:                                               ; preds = %10
  %16 = load ptr, ptr %4, align 8
  %17 = call noundef nonnull align 4 dereferenceable(8) ptr @_ZNK32pxrInternal_v0_24__pxrReserved__12Usd_PrimData7GetPathEv(ptr noundef nonnull align 8 dereferenceable(64) %16)
  store ptr %17, ptr %2, align 8
  br label %21

18:                                               ; preds = %10
  br label %19

19:                                               ; preds = %18
  %20 = call noundef nonnull align 4 dereferenceable(8) ptr @_ZN32pxrInternal_v0_24__pxrReserved__7SdfPath9EmptyPathEv()
  store ptr %20, ptr %2, align 8
  br label %21

21:                                               ; preds = %19, %15, %8
  %22 = load ptr, ptr %2, align 8
  ret ptr %22
}

; Function Attrs: mustprogress uwtable
define noundef zeroext i1 @_ZN32pxrInternal_v0_24__pxrReserved__18UsdNamespaceEditor12ReparentPrimERKNS_7UsdPrimES3_RKNS_7TfTokenE(ptr noundef nonnull align 8 dereferenceable(200) %0, ptr noundef nonnull align 8 dereferenceable(32) %1, ptr noundef nonnull align 8 dereferenceable(32) %2, ptr noundef nonnull align 8 dereferenceable(8) %3) #0 align 2 personality ptr @__gxx_personality_v0 {
  %5 = alloca ptr, align 8
  %6 = alloca ptr, align 8
  %7 = alloca ptr, align 8
  %8 = alloca ptr, align 8
  %9 = alloca %"class.pxrInternal_v0_24__pxrReserved__::SdfPath", align 4
  %10 = alloca ptr, align 8
  %11 = alloca i32, align 4
  store ptr %0, ptr %5, align 8
  store ptr %1, ptr %6, align 8
  store ptr %2, ptr %7, align 8
  store ptr %3, ptr %8, align 8
  %12 = load ptr, ptr %5, align 8
  %13 = load ptr, ptr %6, align 8
  %14 = call noundef nonnull align 4 dereferenceable(8) ptr @_ZNK32pxrInternal_v0_24__pxrReserved__9UsdObject11GetPrimPathEv(ptr noundef nonnull align 8 dereferenceable(32) %13)
  %15 = load ptr, ptr %7, align 8
  %16 = call noundef nonnull align 4 dereferenceable(8) ptr @_ZNK32pxrInternal_v0_24__pxrReserved__9UsdObject11GetPrimPathEv(ptr noundef nonnull align 8 dereferenceable(32) %15)
  %17 = load ptr, ptr %8, align 8
  call void @_ZNK32pxrInternal_v0_24__pxrReserved__7SdfPath11AppendChildERKNS_7TfTokenE(ptr dead_on_unwind writable sret(%"class.pxrInternal_v0_24__pxrReserved__::SdfPath") align 4 %9, ptr noundef nonnull align 4 dereferenceable(8) %16, ptr noundef nonnull align 8 dereferenceable(8) %17)
  %18 = invoke noundef zeroext i1 @_ZN32pxrInternal_v0_24__pxrReserved__18UsdNamespaceEditor12_AddPrimMoveERKNS_7SdfPathES3_(ptr noundef nonnull align 8 dereferenceable(200) %12, ptr noundef nonnull align 4 dereferenceable(8) %14, ptr noundef nonnull align 4 dereferenceable(8) %9)
          to label %19 unwind label %20

19:                                               ; preds = %4
  call void @_ZN32pxrInternal_v0_24__pxrReserved__7SdfPathD2Ev(ptr noundef nonnull align 4 dereferenceable(8) %9) #11
  ret i1 %18

20:                                               ; preds = %4
  %21 = landingpad { ptr, i32 }
          cleanup
  %22 = extractvalue { ptr, i32 } %21, 0
  store ptr %22, ptr %10, align 8
  %23 = extractvalue { ptr, i32 } %21, 1
  store i32 %23, ptr %11, align 4
  call void @_ZN32pxrInternal_v0_24__pxrReserved__7SdfPathD2Ev(ptr noundef nonnull align 4 dereferenceable(8) %9) #11
  br label %24

24:                                               ; preds = %20
  %25 = load ptr, ptr %10, align 8
  %26 = load i32, ptr %11, align 4
  %27 = insertvalue { ptr, i32 } poison, ptr %25, 0
  %28 = insertvalue { ptr, i32 } %27, i32 %26, 1
  resume { ptr, i32 } %28
}