; Function Attrs: mustprogress uwtable
define noundef zeroext i1 @_ZN32pxrInternal_v0_24__pxrReserved__18UsdNamespaceEditor12ReparentPrimERKNS_7UsdPrimES3_RKNS_7TfTokenE(ptr noundef nonnull align 8 dereferenceable(200) %0, ptr noundef nonnull align 8 dereferenceable(32) %1, ptr noundef nonnull align 8 dereferenceable(32) %2, ptr noundef nonnull align 8 dereferenceable(8) %3) local_unnamed_addr #0 align 2 personality ptr @__gxx_personality_v0 {
  %5 = alloca %"class.pxrInternal_v0_24__pxrReserved__::SdfPath", align 4
  %6 = getelementptr inbounds nuw i8, ptr %1, i64 16
  %7 = load i32, ptr %6, align 8
  %.not.i.i = icmp eq i32 %7, 0
  br i1 %.not.i.i, label %8, label %_ZNK32pxrInternal_v0_24__pxrReserved__9UsdObject11GetPrimPathEv.exit

8:                                                ; preds = %4
  %9 = getelementptr inbounds nuw i8, ptr %1, i64 8
  %10 = load ptr, ptr %9, align 8
  %.not.i = icmp eq ptr %10, null
  br i1 %.not.i, label %13, label %11

11:                                               ; preds = %8
  %12 = getelementptr inbounds nuw i8, ptr %10, i64 16
  br label %_ZNK32pxrInternal_v0_24__pxrReserved__9UsdObject11GetPrimPathEv.exit

13:                                               ; preds = %8
  %14 = tail call noundef nonnull align 4 dereferenceable(8) ptr @_ZN32pxrInternal_v0_24__pxrReserved__7SdfPath9EmptyPathEv()
  br label %_ZNK32pxrInternal_v0_24__pxrReserved__9UsdObject11GetPrimPathEv.exit

_ZNK32pxrInternal_v0_24__pxrReserved__9UsdObject11GetPrimPathEv.exit: ; preds = %4, %11, %13
  %.0.i = phi ptr [ %12, %11 ], [ %14, %13 ], [ %6, %4 ]
  %15 = getelementptr inbounds nuw i8, ptr %2, i64 16
  %16 = load i32, ptr %15, align 8
  %.not.i.i5 = icmp eq i32 %16, 0
  br i1 %.not.i.i5, label %17, label %_ZNK32pxrInternal_v0_24__pxrReserved__9UsdObject11GetPrimPathEv.exit8

17:                                               ; preds = %_ZNK32pxrInternal_v0_24__pxrReserved__9UsdObject11GetPrimPathEv.exit
  %18 = getelementptr inbounds nuw i8, ptr %2, i64 8
  %19 = load ptr, ptr %18, align 8
  %.not.i7 = icmp eq ptr %19, null
  br i1 %.not.i7, label %22, label %20

20:                                               ; preds = %17
  %21 = getelementptr inbounds nuw i8, ptr %19, i64 16
  br label %_ZNK32pxrInternal_v0_24__pxrReserved__9UsdObject11GetPrimPathEv.exit8

22:                                               ; preds = %17
  %23 = tail call noundef nonnull align 4 dereferenceable(8) ptr @_ZN32pxrInternal_v0_24__pxrReserved__7SdfPath9EmptyPathEv()
  br label %_ZNK32pxrInternal_v0_24__pxrReserved__9UsdObject11GetPrimPathEv.exit8

_ZNK32pxrInternal_v0_24__pxrReserved__9UsdObject11GetPrimPathEv.exit8: ; preds = %_ZNK32pxrInternal_v0_24__pxrReserved__9UsdObject11GetPrimPathEv.exit, %20, %22
  %.0.i6 = phi ptr [ %21, %20 ], [ %23, %22 ], [ %15, %_ZNK32pxrInternal_v0_24__pxrReserved__9UsdObject11GetPrimPathEv.exit ]
  call void @_ZNK32pxrInternal_v0_24__pxrReserved__7SdfPath11AppendChildERKNS_7TfTokenE(ptr dead_on_unwind nonnull writable sret(%"class.pxrInternal_v0_24__pxrReserved__::SdfPath") align 4 %5, ptr noundef nonnull align 4 dereferenceable(8) %.0.i6, ptr noundef nonnull align 8 dereferenceable(8) %3)
  %24 = invoke noundef zeroext i1 @_ZN32pxrInternal_v0_24__pxrReserved__18UsdNamespaceEditor12_AddPrimMoveERKNS_7SdfPathES3_(ptr noundef nonnull align 8 dereferenceable(200) %0, ptr noundef nonnull align 4 dereferenceable(8) %.0.i, ptr noundef nonnull align 4 dereferenceable(8) %5)
          to label %25 unwind label %44

25:                                               ; preds = %_ZNK32pxrInternal_v0_24__pxrReserved__9UsdObject11GetPrimPathEv.exit8
  %26 = load i32, ptr %5, align 4
  %.not.i.i9 = icmp eq i32 %26, 0
  br i1 %.not.i.i9, label %_ZN32pxrInternal_v0_24__pxrReserved__7SdfPathD2Ev.exit, label %27

27:                                               ; preds = %25
  %28 = and i32 %26, 255
  %29 = lshr i32 %26, 8
  %30 = zext nneg i32 %28 to i64
  %31 = getelementptr inbounds nuw [257 x ptr], ptr @_ZN32pxrInternal_v0_24__pxrReserved__8Sdf_PoolINS_15Sdf_PathPrimTagELj24ELj8ELj16384EE13_regionStartsE, i64 0, i64 %30
  %32 = load ptr, ptr %31, align 8
  %33 = mul nuw nsw i32 %29, 24
  %34 = zext nneg i32 %33 to i64
  %35 = getelementptr inbounds nuw i8, ptr %32, i64 %34
  %36 = getelementptr inbounds nuw i8, ptr %35, i64 8
  %37 = atomicrmw sub ptr %36, i32 1 seq_cst, align 4
  %38 = and i32 %37, 2147483647
  %39 = icmp eq i32 %38, 1
  br i1 %39, label %40, label %_ZN32pxrInternal_v0_24__pxrReserved__7SdfPathD2Ev.exit

40:                                               ; preds = %27
  invoke void @_ZNK32pxrInternal_v0_24__pxrReserved__12Sdf_PathNode8_DestroyEv(ptr noundef nonnull align 8 dereferenceable(16) %35)
          to label %_ZN32pxrInternal_v0_24__pxrReserved__7SdfPathD2Ev.exit unwind label %41

41:                                               ; preds = %40
  %42 = landingpad { ptr, i32 }
          catch ptr null
  %43 = extractvalue { ptr, i32 } %42, 0
  call void @__clang_call_terminate(ptr %43) #23
  unreachable

_ZN32pxrInternal_v0_24__pxrReserved__7SdfPathD2Ev.exit: ; preds = %25, %27, %40
  ret i1 %24

44:                                               ; preds = %_ZNK32pxrInternal_v0_24__pxrReserved__9UsdObject11GetPrimPathEv.exit8
  %45 = landingpad { ptr, i32 }
          cleanup
  call void @_ZN32pxrInternal_v0_24__pxrReserved__7SdfPathD2Ev(ptr noundef nonnull align 4 dereferenceable(8) %5) #13
  resume { ptr, i32 } %45
}